target datalayout = "e-m:e-p270:32:32-p271:32:32-p272:64:64-i64:64-i128:128-f80:128-n8:16:32:64-S128"
target triple = "x86_64-pc-linux-gnu"

; Function Attrs: nounwind uwtable
define ptr @a2i_IPADDRESS(ptr noundef %0) #0 {
  %2 = alloca ptr, align 8
  %3 = alloca ptr, align 8
  %4 = alloca [16 x i8], align 16
  %5 = alloca ptr, align 8
  %6 = alloca i32, align 4
  %7 = alloca i32, align 4
  store ptr %0, ptr %3, align 8, !tbaa !3
  call void @llvm.lifetime.start.p0(i64 16, ptr %4) #8
  call void @llvm.lifetime.start.p0(i64 8, ptr %5) #8
  call void @llvm.lifetime.start.p0(i64 4, ptr %6) #8
  %8 = getelementptr inbounds [16 x i8], ptr %4, i64 0, i64 0
  %9 = load ptr, ptr %3, align 8, !tbaa !3
  %10 = call i32 @ossl_a2i_ipadd(ptr noundef %8, ptr noundef %9)
  store i32 %10, ptr %6, align 4, !tbaa !15
  %11 = load i32, ptr %6, align 4, !tbaa !15
  %12 = icmp ne i32 %11, 0
  br i1 %12, label %14, label %13

13:                                               ; preds = %1
  store ptr null, ptr %2, align 8
  store i32 1, ptr %7, align 4
  br label %29

14:                                               ; preds = %1
  %15 = call ptr @ASN1_OCTET_STRING_new()
  store ptr %15, ptr %5, align 8, !tbaa !23
  %16 = load ptr, ptr %5, align 8, !tbaa !23
  %17 = icmp eq ptr %16, null
  br i1 %17, label %18, label %19

18:                                               ; preds = %14
  store ptr null, ptr %2, align 8
  store i32 1, ptr %7, align 4
  br label %29

19:                                               ; preds = %14
  %20 = load ptr, ptr %5, align 8, !tbaa !23
  %21 = getelementptr inbounds [16 x i8], ptr %4, i64 0, i64 0
  %22 = load i32, ptr %6, align 4, !tbaa !15
  %23 = call i32 @ASN1_OCTET_STRING_set(ptr noundef %20, ptr noundef %21, i32 noundef %22)
  %24 = icmp ne i32 %23, 0
  br i1 %24, label %27, label %25

25:                                               ; preds = %19
  %26 = load ptr, ptr %5, align 8, !tbaa !23
  call void @ASN1_OCTET_STRING_free(ptr noundef %26)
  store ptr null, ptr %2, align 8
  store i32 1, ptr %7, align 4
  br label %29

27:                                               ; preds = %19
  %28 = load ptr, ptr %5, align 8, !tbaa !23
  store ptr %28, ptr %2, align 8
  store i32 1, ptr %7, align 4
  br label %29

29:                                               ; preds = %27, %25, %18, %13
  call void @llvm.lifetime.end.p0(i64 4, ptr %6) #8
  call void @llvm.lifetime.end.p0(i64 8, ptr %5) #8
  call void @llvm.lifetime.end.p0(i64 16, ptr %4) #8
  %30 = load ptr, ptr %2, align 8
  ret ptr %30
}