; Function Attrs: nounwind uwtable
define ptr @a2i_IPADDRESS(ptr noundef %0) local_unnamed_addr #0 {
  %2 = alloca [16 x i8], align 16
  call void @llvm.lifetime.start.p0(i64 16, ptr nonnull %2) #12
  %3 = call i32 @ossl_a2i_ipadd(ptr noundef nonnull %2, ptr noundef %0)
  %.not = icmp eq i32 %3, 0
  br i1 %.not, label %10, label %4

4:                                                ; preds = %1
  %5 = tail call ptr @ASN1_OCTET_STRING_new() #12
  %6 = icmp eq ptr %5, null
  br i1 %6, label %10, label %7

7:                                                ; preds = %4
  %8 = call i32 @ASN1_OCTET_STRING_set(ptr noundef nonnull %5, ptr noundef nonnull %2, i32 noundef %3) #12
  %.not9 = icmp eq i32 %8, 0
  br i1 %.not9, label %9, label %10

9:                                                ; preds = %7
  call void @ASN1_OCTET_STRING_free(ptr noundef nonnull %5) #12
  br label %10

10:                                               ; preds = %7, %4, %1, %9
  %.0 = phi ptr [ null, %9 ], [ null, %1 ], [ null, %4 ], [ %5, %7 ]
  call void @llvm.lifetime.end.p0(i64 16, ptr nonnull %2) #12
  ret ptr %.0
}